; Function Attrs: mustprogress uwtable
define hidden noundef i32 @_ZN4cvc58internal12TheoryEngine17getEqualityStatusENS0_12NodeTemplateILb0EEES3_(ptr nocapture noundef nonnull readonly align 8 dereferenceable(1448) %this, ptr nocapture noundef readonly %a, ptr nocapture noundef readonly %b) local_unnamed_addr #3 align 2 personality ptr @__gxx_personality_v0 {
entry:
  %agg.tmp = alloca %"class.cvc5::internal::NodeTemplate.799", align 8
  %agg.tmp2 = alloca %"class.cvc5::internal::NodeTemplate.799", align 8
  %d_sharedSolver = getelementptr inbounds i8, ptr %this, i64 176
  %0 = load ptr, ptr %d_sharedSolver, align 8
  %1 = load ptr, ptr %a, align 8
  store ptr %1, ptr %agg.tmp, align 8
  %2 = load ptr, ptr %b, align 8
  store ptr %2, ptr %agg.tmp2, align 8
  %vtable = load ptr, ptr %0, align 8
  %vfn = getelementptr inbounds i8, ptr %vtable, i64 32
  %3 = load ptr, ptr %vfn, align 8
  %call = call noundef i32 %3(ptr noundef nonnull align 8 dereferenceable(976) %0, ptr noundef nonnull %agg.tmp, ptr noundef nonnull %agg.tmp2)
  ret i32 %call
}